target datalayout = "e-m:e-p270:32:32-p271:32:32-p272:64:64-i64:64-i128:128-f80:128-n8:16:32:64-S128"
target triple = "x86_64-pc-linux-gnu"

%"class.std::__cxx11::basic_string" = type { %"struct.std::__cxx11::basic_string<char>::_Alloc_hider", i64, %union.anon }
%"struct.std::__cxx11::basic_string<char>::_Alloc_hider" = type { ptr }
%union.anon = type { i64, [8 x i8] }
%"struct.std::pair" = type { %"class.std::__cxx11::basic_string", %"class.std::__cxx11::basic_string" }

; Function Attrs: mustprogress uwtable
define void @_ZN32pxrInternal_v0_24__pxrReserved__25ArJoinPackageRelativePathERKSt4pairINSt7__cxx1112basic_stringIcSt11char_traitsIcESaIcEEES6_E(ptr dead_on_unwind noalias writable sret(%"class.std::__cxx11::basic_string") align 8 %0, ptr noundef nonnull align 8 dereferenceable(64) %1) #0 {
  %3 = alloca ptr, align 8
  %4 = alloca ptr, align 8
  %5 = alloca [2 x ptr], align 16
  store ptr %0, ptr %3, align 8
  store ptr %1, ptr %4, align 8
  %6 = load ptr, ptr %4, align 8
  %7 = getelementptr inbounds nuw %"struct.std::pair", ptr %6, i32 0, i32 0
  store ptr %7, ptr %5, align 8
  %8 = getelementptr inbounds ptr, ptr %5, i64 1
  %9 = load ptr, ptr %4, align 8
  %10 = getelementptr inbounds nuw %"struct.std::pair", ptr %9, i32 0, i32 1
  store ptr %10, ptr %8, align 8
  %11 = getelementptr inbounds [2 x ptr], ptr %5, i64 0, i64 0
  %12 = getelementptr inbounds [2 x ptr], ptr %5, i64 0, i64 0
  %13 = getelementptr inbounds ptr, ptr %12, i64 2
  call void @_ZN32pxrInternal_v0_24__pxrReserved__12_GLOBAL__N_124_JoinPackageRelativePathIPKPKNSt7__cxx1112basic_stringIcSt11char_traitsIcESaIcEEEEES7_T_SC_(ptr dead_on_unwind writable sret(%"class.std::__cxx11::basic_string") align 8 %0, ptr noundef %11, ptr noundef %13)
  ret void
}