; Function Attrs: mustprogress uwtable
define void @_ZN32pxrInternal_v0_24__pxrReserved__25ArJoinPackageRelativePathERKSt4pairINSt7__cxx1112basic_stringIcSt11char_traitsIcESaIcEEES6_E(ptr dead_on_unwind noalias writable sret(%"class.std::__cxx11::basic_string") align 8 %0, ptr noundef nonnull align 8 dereferenceable(64) %1) local_unnamed_addr #2 {
  %3 = alloca [2 x ptr], align 16
  store ptr %1, ptr %3, align 16
  %4 = getelementptr inbounds i8, ptr %3, i64 8
  %5 = getelementptr inbounds nuw i8, ptr %1, i64 32
  store ptr %5, ptr %4, align 8
  %6 = getelementptr inbounds i8, ptr %3, i64 16
  call fastcc void @_ZN32pxrInternal_v0_24__pxrReserved__12_GLOBAL__N_124_JoinPackageRelativePathIPKPKNSt7__cxx1112basic_stringIcSt11char_traitsIcESaIcEEEEES7_T_SC_(ptr dead_on_unwind noalias writable align 8 %0, ptr noundef nonnull %3, ptr noundef nonnull %6)
  ret void
}